target datalayout = "e-m:e-p270:32:32-p271:32:32-p272:64:64-i64:64-i128:128-f80:128-n8:16:32:64-S128"
target triple = "x86_64-unknown-linux-gnu"

%"class.icu_75::FormattedValue" = type { ptr }
%"class.icu_75::number::FormattedNumberRange" = type <{ %"class.icu_75::FormattedValue", ptr, i32, [4 x i8] }>

; Function Attrs: mustprogress nounwind uwtable
define internal noundef signext i8 @_ZL9U_FAILURE10UErrorCode(i32 noundef %code) #0 {
entry:
  %code.addr = alloca i32, align 4
  store i32 %code, ptr %code.addr, align 4
  %0 = load i32, ptr %code.addr, align 4
  %cmp = icmp sgt i32 %0, 0
  %conv = zext i1 %cmp to i8
  ret i8 %conv
}

; Function Attrs: mustprogress uwtable
define noundef ptr @_ZNK6icu_756number20FormattedNumberRange7getDataER10UErrorCode(ptr noundef nonnull align 8 dereferenceable(20) %this, ptr noundef nonnull align 4 dereferenceable(4) %status) #1 align 2 {
entry:
  %retval = alloca ptr, align 8
  %this.addr = alloca ptr, align 8
  %status.addr = alloca ptr, align 8
  store ptr %this, ptr %this.addr, align 8
  store ptr %status, ptr %status.addr, align 8
  %this1 = load ptr, ptr %this.addr, align 8
  %0 = load ptr, ptr %status.addr, align 8
  %1 = load i32, ptr %0, align 4
  %call = call noundef signext i8 @_ZL9U_FAILURE10UErrorCode(i32 noundef %1)
  %tobool = icmp ne i8 %call, 0
  br i1 %tobool, label %if.then, label %if.end

if.then:                                          ; preds = %entry
  store ptr null, ptr %retval, align 8
  br label %return

if.end:                                           ; preds = %entry
  %fData = getelementptr inbounds %"class.icu_75::number::FormattedNumberRange", ptr %this1, i32 0, i32 1
  %2 = load ptr, ptr %fData, align 8
  %cmp = icmp eq ptr %2, null
  br i1 %cmp, label %if.then2, label %if.end3

if.then2:                                         ; preds = %if.end
  %fErrorCode = getelementptr inbounds %"class.icu_75::number::FormattedNumberRange", ptr %this1, i32 0, i32 2
  %3 = load i32, ptr %fErrorCode, align 8
  %4 = load ptr, ptr %status.addr, align 8
  store i32 %3, ptr %4, align 4
  store ptr null, ptr %retval, align 8
  br label %return

if.end3:                                          ; preds = %if.end
  %fData4 = getelementptr inbounds %"class.icu_75::number::FormattedNumberRange", ptr %this1, i32 0, i32 1
  %5 = load ptr, ptr %fData4, align 8
  store ptr %5, ptr %retval, align 8
  br label %return

return:                                           ; preds = %if.end3, %if.then2, %if.then
  %6 = load ptr, ptr %retval, align 8
  ret ptr %6
}