; Function Attrs: mustprogress nofree norecurse nosync nounwind willreturn memory(argmem: readwrite) uwtable
define noundef ptr @_ZNK6icu_756number20FormattedNumberRange7getDataER10UErrorCode(ptr nocapture noundef nonnull readonly align 8 dereferenceable(20) %this, ptr nocapture noundef nonnull align 4 dereferenceable(4) %status) local_unnamed_addr #6 align 2 {
entry:
  %0 = load i32, ptr %status, align 4
  %cmp.i = icmp slt i32 %0, 1
  br i1 %cmp.i, label %if.end, label %return

if.end:                                           ; preds = %entry
  %fData = getelementptr inbounds i8, ptr %this, i64 8
  %1 = load ptr, ptr %fData, align 8
  %cmp = icmp eq ptr %1, null
  br i1 %cmp, label %if.then2, label %return

if.then2:                                         ; preds = %if.end
  %fErrorCode = getelementptr inbounds i8, ptr %this, i64 16
  %2 = load i32, ptr %fErrorCode, align 8
  store i32 %2, ptr %status, align 4
  br label %return

return:                                           ; preds = %if.end, %entry, %if.then2
  %retval.0 = phi ptr [ null, %if.then2 ], [ null, %entry ], [ %1, %if.end ]
  ret ptr %retval.0
}